; Function Attrs: nounwind uwtable
define internal range(i32 -2147483627, -2147483648) i32 @aesni_cbc_hmac_sha1_tls1_multiblock_max_bufsize(ptr noundef readonly captures(none) %0) #2 {
  %2 = getelementptr inbounds nuw i8, ptr %0, i64 480
  %3 = load i64, ptr %2, align 8, !tbaa !47
  %.not = icmp eq i64 %3, 0
  br i1 %.not, label %4, label %5

4:                                                ; preds = %1
  tail call void @OPENSSL_die(ptr noundef nonnull @.str, ptr noundef nonnull @.str.1, i32 noundef 707) #11
  unreachable

5:                                                ; preds = %1
  %6 = trunc i64 %3 to i32
  %7 = add nsw i32 %6, 36
  %8 = and i32 %7, -16
  %9 = add nsw i32 %8, 21
  ret i32 %9
}